(dp0
S'192.168.1.217'
p1
S'up'
p2
sS'www.zumiez.com'
p3
S'up'
p4
sS'google.com'
p5
S'down'
p6
sS'media1.zumiez.com'
p7
S'down'
p8
sS'10.100.3.171'
p9
S'down'
p10
sS'zumiez.com'
p11
g6
sS'192.168.1.268'
p12
S'down'
p13
sS'www.dsdd.com'
p14
S'up'
p15
sS'www.lofisampler.com'
p16
S'down'
p17
sS'192.168.1.1'
p18
S'down'
p19
sS'web03.zumiez.com'
p20
S'down'
p21
sS'216.182.92.73'
p22
S'up'
p23
sS'96.31.161.104'
p24
S'down'
p25
sS'www.zumieza.com'
p26
S'down'
p27
sS'96.31.161.105'
p28
S'down'
p29
sS'web08.zumiez.com'
p30
S'down'
p31
s.